(dp1
S'output'
p2
S'missing "pass" in view'
p3
sS'layer'
p4
S'ParserContainer'
p5
sS'code'
p6
S'response.write(\'<!--{% load staticfiles %}-->\\n<!DOCTYPE html>\\n<html>\\n<head>\\n\\t<meta charset="utf-8">\\n\\t<meta https-equiv="Content-Type" content="text/html; charset=UTF-8">\\n\\t<meta https-equiv="X-UA-Compatible" content="IE=edge">\\n\\t<meta name="viewport" content="width=device-width, initial-scale=1.0">\\n\\t<title>SIGESC</title>\\n\\n\\t<!-- Compiled and minified CSS -->\\n\\t<link href="\', escape=False)\nresponse.write(URL(\'static\', \'css/bootstrap.css\'))\nresponse.write(\'" rel="stylesheet" />\\n\\t<!-- Optional theme -->\\n\\t<link href="\', escape=False)\nresponse.write(URL(\'static\', \'css/bootstrap-theme.min.css\'))\nresponse.write(\'" rel="stylesheet" />\\n\\t<link href="\', escape=False)\nresponse.write(URL(\'static\', \'css/theme.css\'))\nresponse.write(\'" rel="stylesheet">\\n\\t<link href="\', escape=False)\nresponse.write(URL(\'static\', \'css/Pag_principal.css\'))\nresponse.write(\'" rel="stylesheet">\\n\\t<link href="\', escape=False)\nresponse.write(URL(\'static\', \'css/miestilo.css\'))\nresponse.write(\'" rel="stylesheet">\\n\\n\\t<link rel="shortcut icon" href="http://www.usb.ve/favicon.ico" />\\n\\n\\t<!-- Latest compiled and minified JavaScript -->\\n    <script type="text/javascript" src="\', escape=False)\nresponse.write(URL(\'static\', \'js/jquery.js\'))\nresponse.write(\'"></script>\\n    <script type="text/javascript" src="\', escape=False)\nresponse.write(URL(\'static\', \'js/bootstrap.js\'))\nresponse.write(\'"></script>\\n\\n    <script type="text/javascript" src="\', escape=False)\nresponse.write(URL(\'static\', \'js/web2py.js\'))\nresponse.write(\'"></script>\\n    <script type="text/javascript" src="\', escape=False)\nresponse.write(URL(\'static\', \'js/web2py_bootstrap.js\'))\nresponse.write(\'"></script>\\n    <script type="text/javascript" src="\', escape=False)\nresponse.write(URL(\'static\', \'js/miscript.js\'))\nresponse.write(\'"></script>\\n    <script type="text/javascript" src="\', escape=False)\nresponse.write(URL(\'static\', \'js/salida.js\'))\nresponse.write(\'"></script>\\n\\n\\n    <link href="\', escape=False)\nresponse.write(URL(\'static\', \'fonts/glyphicons-halflings-regular.svg\'))\nresponse.write(\'" rel="stylesheet"/>\\n    <link href="\', escape=False)\nresponse.write(URL(\'static\', \'fonts/glyphicons-halflings-regular.eot\'))\nresponse.write(\'" rel="stylesheet" />\\n\\n    <link href="\', escape=False)\nresponse.write(URL(\'static\', \'fonts/glyphicons-halflings-regular.ttf\'))\nresponse.write(\'" rel="stylesheet" />\\n    <link href="\', escape=False)\nresponse.write(URL(\'static\', \'fonts/glyphicons-halflings-regular.woff\'))\nresponse.write(\'" rel="stylesheet" />\\n    <link href="\', escape=False)\nresponse.write(URL(\'static\', \'fonts/glyphicons-halflings-regular.woff2\'))\nresponse.write(\'" rel="stylesheet" />\\n\\n</head>\\n<div id="myModal" class="modal2">\\n\\n  <!-- Modal content -->\\n  <div class="modal2-content">\\n    <div class="modal2-header">\\n      <span class="close">X</span>\\n      <h4 align="center" font="color:white">Aviso</h4>\\n    </div>\\n    <div align="center" class="modal2-body">\\n      <h4 >\\xc2\\xbfEst\\xc3\\xa1s seguro que deseas salir?</h4><hr>\\n      <div class="row" style="margin-bottom: 10px">\\n      <div class="col-md-6">\\n       <button onclick="cierra_modal()" class="btn btn-primary" style="width: 150px; height:30px">\\n       \\tCancelar\\n       </button>\\n       </div>\\n       <div class="col-md-6">\\n       <a href="\', escape=False)\nresponse.write(URL(\'default\', \'logout\'))\nresponse.write(\'">\\n       <button onclick="cierra_modal()" class="btn btn-primary" style="width: 150px; height:30px">\\n       \\tAceptar\\n       </button></a>\\n       </div>\\n      </div>\\n    </div>\\n  </div>\\n\\n</div>\\n<body>\\n\\n\\t<header>\\n\\t\\t<div align="center">\\n\\t\\t\\t\\t<img src="\', escape=False)\nresponse.write(URL(\'static\', \'img/top.png\'))\nresponse.write(\'" class="img-responsive" alt="top" width="75%">\\n\\t\\t\\t</a>\\n\\t\\t</div>\\n\\t\\t<div class="container" style="width: 75%;">\\n\\t\\t\\t<nav class="navbar navbar-inverse" style="border-color:#3498DB;">\\n\\t\\t\\t  <div class="container-fluid" style="background-color:#3498DB;">\\n\\t\\t\\t    <div class="navbar-header">\\n\\t\\t\\t      <button type="button" class="navbar-toggle" data-toggle="collapse" data-target="#myNavbar" style="border-color:#fff;">\\n\\t\\t\\t        <span class="icon-bar"></span>\\n\\t\\t\\t        <span class="icon-bar"></span>\\n\\t\\t\\t        <span class="icon-bar"></span>\\n\\t\\t\\t      </button>\\n\\t\\t\\t      <a class="navbar-brand"  href="."><span class="glyphicon glyphicon-home"></span></a>\\n\\t\\t\\t    </div>\\n\\t\\t\\t    <div class="collapse navbar-collapse" id="myNavbar">\\n\\t\\t\\t      <ul class="nav navbar-nav">\\n\\t\\t\\t        <li><a href="#">\\xc2\\xbfQui\\xc3\\xa9nes somos?</a></li>\\n\\t\\t\\t        <li><a href="#">Formatos SC</a></li>\\n\\t\\t\\t        <li><a href="#">Reglamentos SC</a></li>\\n\\t\\t\\t        <li><a href="#">Decanato de extensi\\xc3\\xb3n</a></li>\\n\\t\\t\\t        <li><a href="#">Proyectos</a></li>\\n\\t\\t\\t      </ul>\\n\\t\\t\\t    </div>\\n\\t\\t\\t  </div>\\n\\t\\t\\t</nav>\\n\\t\\t</div>\\n\\t</header>\\n\\n\\t<div class="container" style="width: 75%;">\\n\\n\\t\\t\', escape=False)\nresponse.write(\'\\n<!DOCTYPE html>\\n\\n<!-- saved from url=(0039)http://getbootstrap.com/examples/theme/ -->\\n<html lang="en"><head><meta http-equiv="Content-Type" content="text/html; charset=UTF-8">\\n    <meta charset="utf-8">\\n    <meta http-equiv="X-UA-Compatible" content="IE=edge">\\n    <meta name="viewport" content="width=device-width, initial-scale=1">\\n    <meta name="description" content="">\\n    <meta name="author" content="">\\n\\n    <link rel="icon" href="http://getbootstrap.com/favicon.ico">\\n    <link rel="stylesheet" href="\', escape=False)\nresponse.write(URL(\'static\', \'css/font-awesome.min.css\'))\nresponse.write(\'">\\n    <link rel="stylesheet" href="\', escape=False)\nresponse.write(URL(\'static\', \'css/bootstrap.min.css\'))\nresponse.write(\'">\\n    <link rel="stylesheet" href="\', escape=False)\nresponse.write(URL(\'static\', \'css/Estudiante.css\'))\nresponse.write(\'">\\n    <link rel="stylesheet" href="\', escape=False)\nresponse.write(URL(\'static\', \'css/miestilo.css\'))\nresponse.write(\'">\\n    <link rel="shortcut icon" href="http://www.usb.ve/favicon.ico" />\\n\\n    <!--<link rel="icon" href="\', escape=False)\nresponse.write(URL(\'static\', \'logoUsb.png\'))\nresponse.write(\'">-->\\n\\n    <!-- Bootstrap core CSS -->\\n    <link href="\', escape=False)\nresponse.write(URL(\'static\', \'css/bootstrap.css\'))\nresponse.write(\'" rel="stylesheet">\\n    <!-- Bootstrap theme -->\\n    <link href="\', escape=False)\nresponse.write(URL(\'static\', \'css/bootstrap-theme.css\'))\nresponse.write(\'" rel="stylesheet">\\n    <script src="http://ajax.googleapis.com/ajax/libs/jquery/1.10.2/jquery.min.js"></script>\\n\\n    <script type="text/javascript" src="\', escape=False)\nresponse.write(URL(\'static\', \'js/bootstrap.js\'))\nresponse.write(\'\\\'"></script>\\n\\n    <!-- Custom styles for this template -->\\n\\n    <link href="\', escape=False)\nresponse.write(URL(\'static\', \'css/theme.css\'))\nresponse.write(\'" rel="stylesheet">\\n    <link href="\', escape=False)\nresponse.write(URL(\'static\', \'css/miestilo.css\'))\nresponse.write(\'" rel="stylesheet">\\n    <link href="\', escape=False)\nresponse.write(URL(\'static\', \'js/bootstrap.js\'))\nresponse.write(\'" rel="stylesheet">\\n\\n    \\n\\n\\n\\n  </head>\\n\\n  <style type="text/css">\\n  h3 {\\n    color: #4682B4;\\n  }\\n  /* The Modal (background) */\\n\\n  </style>\\n\\n  <body role="document">\\n  <!-- The Modal -->\\n\\n    <!-- Fixed navbar -->\\n\\n\\n    <!-- Contenido -->\\n    <div class="col-sm-12" align="center">\\n\\n    \\n    </div>\\n\\n\\n\\n    <div class="col-sm-12">\\n\\n        <div class="row">\\n            <div style="text-align:center" class="col-md-2">\\n                <img src="\', escape=False)\nresponse.write(picture)\nresponse.write(\'" class="avatar img-circle" width="130"/>\\n            </div>\\n            <div class="col-md-8" style="color:#4682B4">\\n\\n                <h4 > SIGESC / <b>Home</b> </h4>\\n\\n                <h4 >\', escape=False)\nresponse.write(bienvenida)\nresponse.write(\'</h4>\\n                \', escape=False)\nif tipo_usuario in ["Pregrado","Postgrado"]:\n    response.write(\'\\n                  <h4 ><b>Iniciado como: Estudiante</b><h4>\\n                \', escape=False)\n    pass\nresponse.write(\'\\n                \', escape=False)\nif "Administrador" in roles:\n    response.write(\'\\n                <h4 ><b>Iniciado como: Administrador</b><h4>\\n                \', escape=False)\n    pass\nresponse.write(\'\\n                \', escape=False)\nif "Asistente" in roles:\n    response.write(\'\\n                <h4 ><b>Iniciado como: Asistente</b><h4>\\n                \', escape=False)\n    if "Coordinador" in roles:\n        response.write(\'\\n                <h4 ><b>Iniciado como: Coordinador</b><h4>\\n                \', escape=False)\n        pass\n    response.write(\'\\n                <!--\', escape=False)\n    if "Coordinador" in roles:\n        response.write(\'\\n                  \\n                  <h4 ><b>Iniciado como: Tutor acad\\xc3\\xa9mico</b><h4>\\n\\n                \', escape=False)\n        pass\n    response.write(\'-->\\n                \', escape=False)\n    if not(tipo_usuario in ["Pregrado","Postgrado"]):\n        response.write(\'\\n                  \', escape=False)\n        if not("Administrador" in roles):\n            response.write(\'\\n                    \', escape=False)\n            if not("Coordinador" in roles):\n                response.write(\'\\n                      <h4 ><b>Iniciado como: Visitante</b><h4>\\n                    \', escape=False)\n                pass\n            response.write(\'\\n                  \', escape=False)\n            pass\n        response.write(\'\\n                \', escape=False)\n        pass\n    response.write(\'\\n                \\n                <a href="\', escape=False)\n    response.write(URL(\'/editar_perfil\'))\n    response.write(\'"><button class="btn btn-primary">Ver perfil</button></a>\\n                \\n            </div>\\n            <div class="col-md-2" align="right">\\n                <a href="#" id="myBtn">\\n                  <spam style="color:#d80000"class="glyphicon glyphicon-log-out">Salir</spam>\\n                </a>\\n            </div>\\n\\n        </div>\\n        <hr>\\n    </div>\\n\\n<div class="row">\\n    <div class="col-sm-10">\\n    \\n    \', escape=False)\n    if tipo_usuario in ["Pregrado","Postgrado"]:\n        response.write(\'\\n\\n    <div class="row">\\n      <div class="col-md-4">\\n          <a href="\', escape=False)\n        response.write(URL(\'vista_estudiante\'))\n        response.write(\'">\\n            <img class="img-responsive-1" src="\', escape=False)\n        response.write(URL(\'static\', \'estudiantes.png\'))\n        response.write(\'" height="155" width="265"\\n            onmouseover="iluminar(this)" onmouseleave="apagar(this)"\\n            id="mis_proy"/>\\n          </a>\\n      </div>\\n      <div class="col-md-4">\\n          \\n            <h3  style="color: #4682B4" >\\n              <a  class="mi_link" href="\', escape=False)\n        response.write(URL(\'vista_estudiante\'))\n        response.write(\'" onmouseover="iluminar(\\\'mis_proy\\\')" onmouseleave="apagar(\\\'mis_proy\\\')"> \\n                Proyecto Servicio Comunitario \\n              </a>\\n            </h3>\\n          \\n            <p style="color: #808080">\\n              Inscribe un proyecto de servicio comunitario<br>\\n              Consulta tus proyectos inscritos<br>\\n            </p>\\n      </div>\\n      <div class="col-md-3">\\n          <div class="row">\\n                <a href="\', escape=False)\n        response.write(URL(\'vista_estudiante\'))\n        response.write(\'">\\n                  <button class="btn btn-primary boton_link" style="width: 250px; height:30px" margin-top="70px"\\n                  onmouseover="iluminar(\\\'mis_proy\\\')" onmouseleave="apagar(\\\'mis_proy\\\')">\\n                    Ir a Proyecto >> </button>\\n                </a>\\n          </div>\\n      </div>\\n    </div>\\n    <hr>\\n  \', escape=False)\n        pass\n    response.write(\'\\n\\n    <div class="row">\\n        <div class="col-md-4">\\n          <a href="\', escape=False)\n    response.write(URL(\'propuestas\'))\n    response.write(\'">\\n            <img class="img-responsive-1" id="img_proponer" \\n                 src="\', escape=False)\n    response.write(URL(\'static\', \'proponente.png\'))\n    response.write(\'" \\n                 height="155" width="265"\\n                 onmouseover="iluminar(\\\'img_proponer\\\')" onmouseleave="apagar(\\\'img_proponer\\\')"/>\\n          </a>\\n        </div>\\n        <div class="col-md-4">\\n            <h3 onmouseover="iluminar(\\\'img_proponer\\\')" onmouseleave="apagar(\\\'img_proponer\\\')">\\n              <a class="mi_link" href="\', escape=False)\n    response.write(URL(\'propuestas\'))\n    response.write(\'">\\n                Proponer Proyectos\\n              </a>\\n            </h3>\\n            <p style="color: #808080">\\n              \\xc2\\xbfSab\\xc3\\xada sque sin importar el tipo de usuario puedes proponer nuevos proyectos?\\n              Entra y haz nuevas propuestas. \\n\\n            </p>\\n        </div>\\n         <div class="col-md-3">\\n            <div class="row">\\n                  <a href="\', escape=False)\n    response.write(URL(\'propuestas\'))\n    response.write(\'">\\n                  <button  class="btn btn-primary boton_link" \\n                           style="width: 250px; height:30px" margin-top="70px"\\n                           onmouseover="iluminar(\\\'img_proponer\\\')" onmouseleave="apagar(\\\'img_proponer\\\')">\\n                      Ir a Proponer  >> \\n                  </button>\\n                  </a>\\n            </div>\\n        </div>\\n    </div>\\n\\n    <hr>  \\n\\n\', escape=False)\n    if "Administrador" in roles:\n        response.write(\'\\n        <div class="row">\\n            <div class="col-md-4">\\n                <a href="\', escape=False)\n        response.write(URL(\'administrador\'))\n        response.write(\'">\\n                <img id="admin" class="img-responsive-1" src="\', escape=False)\n        response.write(URL(\'static\', \'admin-2.jpg\'))\n        response.write(\'" height="155" width="265"onmouseover="iluminar(\\\'admin\\\')" onmouseleave="apagar(\\\'admin\\\')"/>\\n                </a>\\n            </div>\\n            <div class="col-md-4">\\n                <h3>\\n                <a class="mi_link" href="\', escape=False)\n        response.write(URL(\'administrador\'))\n        response.write(\'" \\n                onmouseover="iluminar(\\\'admin\\\')" onmouseleave="apagar(\\\'admin\\\')">\\n                   Administrar\\n                </a></h3>\\n                 <p style="color: #808080">\\n                   Consulta la lista de los usuarios externos e internos.<br> \\n                   Maneja los roles de usuarios. <br>\\n                   Gestiona sedes, proyectos, \\xc3\\xa1reas de proyectos y m\\xc3\\xa1s...  \\n\\n                </p>\\n            </div>\\n             <div class="col-md-3">\\n                <div class="row">\\n                      <a href="\', escape=False)\n        response.write(URL(\'administrador\'))\n        response.write(\'">\\n                      <button  class="btn btn-primary boton_link" style="width: 250px; height:30px" margin-top="70px" onmouseover="iluminar(\\\'admin\\\')" onmouseleave="apagar(\\\'admin\\\')">\\n                          Ir a Administrador  >> \\n                      </button>\\n                      </a>\\n                </div>\\n            </div>\\n        </div>\\n        <hr>\\n\\n\', escape=False)\n        pass\n    response.write(\'\\n\', escape=False)\n    if ("Asistente" in roles) or ("Coordinador" in roles):\n        response.write(\'\\n        <div class="row">\\n\\n            <div class="col-md-4">\\n            <a href="\', escape=False)\n        response.write(URL(\'solicitud_constancia_coordinacion\'))\n        response.write(\'">\\n                <img class="img-responsive-1" id="img_solicitud" \\n                     src="\', escape=False)\n        response.write(URL(\'static\', \'tutor.png\'))\n        response.write(\'" height="155" width="265"\\n                     onmouseover="iluminar(\\\'img_solicitud\\\')" onmouseleave="apagar(\\\'img_solicitud\\\')"/>\\n            </a>\\n            </div>\\n            <div class="col-md-4">\\n                <h3 onmouseover="iluminar(\\\'img_solicitud\\\')" onmouseleave="apagar(\\\'img_solicitud\\\')"> \\n                  <a class="mi_link" href="\', escape=False)\n        response.write(URL(\'solicitud_constancia_coordinacion\'))\n        response.write(\'">\\n                    Solicitudes\\n                  </a>\\n                </h3>\\n                <p style="color: #808080">\\n                   Consulta todo lo relacionado a las solicitudes de inscripci\\xc3\\xb3n que han hecho los estudiantes para realizar el Servicio Comunitario. \\n                   \\n                </p>\\n            </div>\\n            <div class="col-md-3">\\n                <div class="row">\\n                      <button class="btn btn-primary boton_link"  \\n                              onclick="location.href=\\\'\', escape=False)\n        response.write(URL(\'solicitud_constancia_coordinacion\'))\n        response.write(\'\\\'" \\n                              style="width: 250px; height:30px" margin-top="70px"\\n                              onmouseover="iluminar(\\\'img_solicitud\\\')" onmouseleave="apagar(\\\'img_solicitud\\\')">\\n                          Ir a Solicitudes  >>\\n                      </button>\\n                </div>\\n            </div>\\n        </div>\\n        <hr>\\n\\n\', escape=False)\n        pass\n    response.write(\'\\n\\n\', escape=False)\n    if "Administrador Dex" in roles:\n        response.write(\'\\n        <div class="row">\\n\\n            <div class="col-md-4">\\n                <img class="img-responsive" src="\', escape=False)\n        response.write(URL(\'static\', \'tutor.png\'))\n        response.write(\'" height="155" width="265"/>\\n            </div>\\n            <div class="col-md-4">\\n                <h3 >Tutores Academicos</h3>\\n                <p style="color: #808080">\\n                   <br>Ver Tutores academicos por pagar.<br>\\n                </p>\\n            </div>\\n            <div class="col-md-3">\\n                <div class="row">\\n                  <a href="#">\\n                      <button class="btn btn-primary boton_link" style="width: 250px; height:30px" margin-top="70px">\\n                          Ir a Tutores Academicos >></button></a>\\n                </div>\\n            </div>\\n        </div>\\n        <hr>\\n\\n\', escape=False)\n        pass\n    response.write(\'\\n\\n\', escape=False)\n    if esTutorAcademico:\n        response.write(\'\\n    <div class="row">\\n      <div class="col-md-4">\\n          <img class="img-responsive" src="\', escape=False)\n        response.write(URL(\'static\', \'estudiantes.png\'))\n        response.write(\'" height="155" width="265"/>\\n      </div>\\n      <div class="col-md-4">\\n          <h3 style="color: #4682B4"> Supervisar solicitudes </h3>\\n\\n          <p style="color: #808080">\\n             Lorem ipsum dolor sit amet, consectetur adipisicing elit. Laboriosam rem beatae fugiat dolorem, alias, deleniti\\n          </p>\\n      </div>\\n      <div class="col-md-3">\\n          <div class="row">\\n              <button class="btn btn-primary boton_link"  onclick="location.href=\\\'\', escape=False)\n        response.write(URL(\'solicitudes_tutor\'))\n        response.write(\'\\\'" style="width: 250px; height:30px" margin-top="70px">\\n\\n                          Ir a Solicitudes  >></button>\\n          </div>\\n      </div>\\n    </div>\\n    <hr>\\n    <div class="row">\\n      <div class="col-md-4">\\n          <img class="img-responsive" src="\', escape=False)\n        response.write(URL(\'static\', \'tutor.png\'))\n        response.write(\'" height="155" width="265"/>\\n      </div>\\n      <div class="col-md-4">\\n          <h3 style="color: #4682B4"> Ver proyectos asignados</h3>\\n          <p style="color: #808080">\\n             Lorem ipsum dolor sit amet, consectetur adipisicing elit. Laboriosam rem beatae fugiat dolorem, alias, deleniti\\n          </p>\\n      </div>\\n      <div class="col-md-3">\\n          <div class="row">\\n              <button class="btn btn-primary boton_link"  onclick="location.href=\\\'\', escape=False)\n        response.write(URL(\'proyectos_tutor_academico\'))\n        response.write(\'\\\'" style="width: 250px; height:30px" margin-top="70px">\\n                          Ir a Proyectos  >></button>\\n\\n          </div>\\n      </div>\\n    </div>\\n    <hr>\\n\', escape=False)\n        pass\n    response.write(\'\\n\\n\', escape=False)\n    if esTutorComunitario:\n        response.write(\'\\n    <div class="row">\\n      <div class="col-md-4">\\n          <img class="img-responsive" src="\', escape=False)\n        response.write(URL(\'static\', \'estudiantes.png\'))\n        response.write(\'" height="155" width="265"/>\\n      </div>\\n      <div class="col-md-4">\\n          <h3 style="color: #4682B4"> Tutor Comunitario </h3>\\n          <p style="color: #808080">\\n             Lorem ipsum dolor sit amet, consectetur adipisicing elit. Laboriosam rem beatae fugiat dolorem, alias, deleniti\\n          </p>\\n      </div>\\n      <div class="col-md-3">\\n          <div class="row">\\n              <button class="btn btn-primary boton_link"  onclick="location.href=\\\'\', escape=False)\n        response.write(URL(\'proyectos_tutor_comunitario\'))\n        response.write(\'\\\'" style="width: 250px; height:30px" margin-top="70px">\\n                          Ir a Tutor Comunitario  >></button>\\n          </div>\\n      </div>\\n    </div>\\n    <hr>\\n\', escape=False)\n        pass\n    response.write(\'\\n\\n\', escape=False)\n    if "Coordinador" in roles:\n        response.write(\'\\n    <div class="row">\\n      <div class="col-md-4">\\n      <a href="#">\\n          <img class="img-responsive-1" \\n               id="img_est"\\n               src="\', escape=False)\n        response.write(URL(\'static\', \'estudiantes.png\'))\n        response.write(\'" height="155" width="265"\\n               onmouseover="iluminar(\\\'img_est\\\')" onmouseleave="apagar(\\\'img_est\\\')"/>\\n        </a>\\n      </div>\\n      <div class="col-md-4">\\n          <h3 style="color: #4682B4" onmouseover="iluminar(\\\'img_est\\\')" onmouseleave="apagar(\\\'img_est\\\')">\\n            <a href="#" class="mi_link"> Gestionar Estudiantes \\n            </a>\\n          </h3>\\n          <p style="color: #808080">\\n             Revisa como avanzan los estudiantes en sus proyectos de Servicio Comunitario\\n          </p>\\n      </div>\\n      <div class="col-md-3">\\n          <div class="row">\\n                <a href="#">\\n                  <button class="btn btn-primary boton_link" style="width: 250px; height:30px" margin-top="70px"\\n                  onmouseover="iluminar(\\\'img_est\\\')" onmouseleave="apagar(\\\'img_est\\\')">\\n                    Ir a Gestionar Estudiantes >> </button>\\n                </a>\\n          </div>\\n      </div>\\n    </div>\\n    <hr>\\n    <div class="row">\\n      <div class="col-md-4">\\n          <a href="#">\\n          <img class="img-responsive-1" src="\', escape=False)\n        response.write(URL(\'static\', \'proyectos.png\'))\n        response.write(\'" height="155" width="265"\\n          onmouseover="iluminar(\\\'img_gest_prop\\\')" onmouseleave="apagar(\\\'img_gest_prop\\\')"\\n          id="img_gest_prop"/>\\n          </a>\\n      </div>\\n      <div class="col-md-4">\\n          <h3 style="color: #4682B4" \\n              onmouseover="iluminar(\\\'img_gest_prop\\\')" onmouseleave="apagar(\\\'img_gest_prop\\\')"> \\n              <a href="#" class="mi_link">Gestionar Propuestas</a> \\n          </h3>\\n          <p style="color: #808080">\\n             Consulta las propuestas que se han hecho acerca de los nuevos proyectos de Servicio Comunitario.\\n          </p>\\n      </div>\\n      <div class="col-md-3">\\n          <div class="row">\\n                <a href="#">\\n                  <button class="btn btn-primary boton_link" style="width: 250px; height:30px" margin-top="70px"\\n                  onmouseover="iluminar(\\\'img_gest_prop\\\')" onmouseleave="apagar(\\\'img_gest_prop\\\')">\\n                    Ir a Gestionar Propuestas >> </button>\\n                </a>\\n          </div>\\n      </div>\\n    </div>\\n    <hr>\\n\', escape=False)\n        pass\n    response.write(\'\\n\\n\\n</div>\\n    <div class="col-md-2 admin"  align="right">\\n\\n        <div class="row">\\n            <br><img class="img-responsive" src="\', escape=False)\n    response.write(URL(\'static\', \'somosUsb.png\'))\n    response.write(\'" height="50" width="150"/><br>\\n        </div>\\n        <div class="row">\\n            <br><br><img class="img-responsive" src="\', escape=False)\n    response.write(URL(\'static\', \'calendario.png\'))\n    response.write(\'" height="50" width="150"/><br>\\n        </div>\\n        <div class="row">\\n            <br><br><img class="img-responsive" src="\', escape=False)\n    response.write(URL(\'static\', \'preguntas.png\'))\n    response.write(\'" height="50" width="150"/><br>\\n        </div>\\n        <div class="row">\\n            <br><br><img class="img-responsive" src="\', escape=False)\n    response.write(URL(\'static\', \'reglamento.png\'))\n    response.write(\'" height="50" width="150"/><br>\\n        </div>\\n        <div class="row">\\n            <br><br><img class="img-responsive" src="\', escape=False)\n    response.write(URL(\'static\', \'aporte.png\'))\n    response.write(\'" height="50" width="150"/><br>\\n        </div>\\n\\n    </div>\\n\\n\\n\\n</html>\\n\\n\', escape=False)\n    response.write(\'\\n\\t</div>\\n\\n\\n<footer style="margin-top: 5%">\\n\\n<div class="row" align="">\\n\\t<div class="col-md-12">\\n\\t\\t\\n\\t\\t<table align="center" border="0" cellpadding="1" cellspacing="1"><tbody><tr><td valign="bottom" width="95">\\n\\n\\t\\t<a href="https://www.usb.ve"><img alt="" src="\', escape=False)\n    response.write(URL(\'static\', \'cebolla.jpg\'))\n    response.write(\'"></a></td>\\n\\n\\t\\t<td valign="bottom">\\n\\t\\t<a href="https://www.usb.ve/estudios/calendario.html" target="_blank">Calendario </a>|<a href="https://www.usb.ve/telefonico/telefonico.php?tipo=personal" target="_blank"> Directorio USB </a>|<a href="https://asignaturas.usb.ve/" target="_blank"> Aula Virtual USB</a> |<a href="https://webmail.usb.ve/" target="_blank"> Webmail</a>|<a href="https://www.usb.ve/buscador.php" target="_blank"> Buscador</a><br>\\n\\t\\tSartenejas, Baruta, Edo. Miranda - Apartado 89000 - Cable Unibolivar - Caracas Venezuela. Telefono +58 0212-9063111<br>\\n\\t\\tDisenada y desarrollada por la Direccion de Servicios Multimedia <a href="mailto:webmaster@usb.ve">webmaster@usb.ve</a></td>\\n\\t\\t</tr></tbody></table><p>\\n\\t\\t&nbsp;</p>\\n\\t</div>\\n</div>\\n</footer>\\n\\n<script>\\n// Get the modal\\nvar modal = document.getElementById(\\\'myModal\\\');\\n\\n// Get the button that opens the modal\\nvar btn = document.getElementById("myBtn");\\n\\n// Get the <span> element that closes the modal\\nvar span = document.getElementsByClassName("close")[0];\\n\\n// When the user clicks the button, open the modal \\nbtn.onclick = function() {\\n    modal.style.display = "block";\\n}\\n\\n// When the user clicks on <span> (x), close the modal\\nspan.onclick = function() {\\n    modal.style.display = "none";\\n}\\n\\n// When the user clicks anywhere outside of the modal, close it\\nwindow.onclick = function(event) {\\n    if (event.target == modal) {\\n        modal.style.display = "none";\\n    }\\n}\\nfunction iluminar(elem) {\\n  document.getElementById(elem).style.opacity = 1;\\n}\\nfunction apagar(elem) {\\n  document.getElementById(elem).style.opacity = 0.5;\\n}\\n</script>\\n</body>\\n\', escape=False)'
p7
sS'snapshot'
p8
(dp9
S'exception'
p10
(dp11
S'__module__'
p12
S"'gluon.rocket'"
p13
sS'__getslice__'
p14
S"<method-wrapper '__getslice__' of SocketTimeout object>"
p15
sS'__str__'
p16
S"<method-wrapper '__str__' of SocketTimeout object>"
p17
sS'__reduce__'
p18
S'<built-in method __reduce__ of SocketTimeout object>'
p19
sS'__dict__'
p20
S'{}'
p21
sS'__sizeof__'
p22
S'<built-in method __sizeof__ of SocketTimeout object>'
p23
sS'__weakref__'
p24
S'None'
p25
sS'__init__'
p26
S"<method-wrapper '__init__' of SocketTimeout object>"
p27
sS'__setattr__'
p28
S"<method-wrapper '__setattr__' of SocketTimeout object>"
p29
sS'__reduce_ex__'
p30
S'<built-in method __reduce_ex__ of SocketTimeout object>'
p31
sS'__new__'
p32
S'<built-in method __new__ of type object>'
p33
sS'__format__'
p34
S'<built-in method __format__ of SocketTimeout object>'
p35
sS'__class__'
p36
S"<class 'gluon.rocket.SocketTimeout'>"
p37
sS'__doc__'
p38
S"'Exception for when a socket times out between requests.'"
p39
sS'__getitem__'
p40
S"<method-wrapper '__getitem__' of SocketTimeout object>"
p41
sS'__setstate__'
p42
S'<built-in method __setstate__ of SocketTimeout object>'
p43
sS'__getattribute__'
p44
S"<method-wrapper '__getattribute__' of SocketTimeout object>"
p45
sS'args'
p46
S"('Socket timed out before request.',)"
p47
sS'__subclasshook__'
p48
S'<built-in method __subclasshook__ of type object>'
p49
sS'__unicode__'
p50
S'<built-in method __unicode__ of SocketTimeout object>'
p51
sS'__delattr__'
p52
S"<method-wrapper '__delattr__' of SocketTimeout object>"
p53
sS'__repr__'
p54
S"<method-wrapper '__repr__' of SocketTimeout object>"
p55
sS'__hash__'
p56
S"<method-wrapper '__hash__' of SocketTimeout object>"
p57
ssS'evalue'
p58
S'Socket timed out before request.'
p59
sS'frames'
p60
(lp61
(dp62
S'file'
p63
S'/home/daniel/web2py/gluon/rocket.py'
p64
sS'dump'
p65
(dp66
S'self'
p67
S'<WSGIWorker(Thread-7, started daemon -1281369280)>'
p68
sS'conn'
p69
S'<gluon.rocket.Connection object>'
p70
sS'self.run_app'
p71
S'<bound method WSGIWorker.run_app of <WSGIWorker(Thread-7, started daemon -1281369280)>>'
p72
ssS'lnum'
p73
I1337
sS'lines'
p74
(dp75
I1332
S'            # Enter connection serve loop'
p76
sI1333
S'            while True:'
p77
sI1334
S'                if __debug__:'
p78
sI1335
S"                    self.err_log.debug('Serving a request')"
p79
sI1336
S'                try:'
p80
sI1337
S'                    self.run_app(conn)'
p81
sI1338
S'                except:'
p82
sI1339
S'                    exc = sys.exc_info()'
p83
sI1340
S'                    handled = self._handleError(*exc)'
p84
sI1341
S'                    if handled:'
p85
ssS'call'
p86
S'(self=<WSGIWorker(Thread-7, started daemon -1281369280)>)'
p87
sS'func'
p88
S'run'
p89
sa(dp90
g63
S'/home/daniel/web2py/gluon/rocket.py'
p91
sg65
(dp92
S'self'
p93
S'<WSGIWorker(Thread-7, started daemon -1281369280)>'
p94
sS'self.environ'
p95
S"{'HTTP_ACCEPT': 'text/html,application/xhtml+xml,application/xml;q=0.9,*/*;q=0.8', 'HTTP_ACCEPT_ENCODING': 'gzip, deflate', 'HTTP_ACCEPT_LANGUAGE': 'es-ar,es;q=0.8,en-us;q=0.5,en;q=0.3', 'HTTP_CACHE_CONTROL': 'max-age=0', 'HTTP_CONNECTION': 'keep-alive', 'HTTP_COOKIE': 'session_id_welcome=127.0.0.1-f243248d-ca47-492d-...ta=127.0.0.1-05b3b224-8a3e-4331-9299-514b14f31ad7', 'HTTP_HOST': '127.0.0.1:8000', 'HTTP_REFERER': 'http://127.0.0.1:8000/SIGESC/default/index', 'HTTP_USER_AGENT': 'Mozilla/5.0 (X11; Ubuntu; Linux i686; rv:35.0) Gecko/20100101 Firefox/35.0', 'PATH_INFO': '/SIGESC/default/home', ...}"
p96
sS'sock_file'
p97
S'<socket._fileobject object>'
p98
sS'environ'
p99
S'undefined'
p100
sS'self.build_environ'
p101
S'<bound method WSGIWorker.build_environ of <WSGIWorker(Thread-7, started daemon -1281369280)>>'
p102
sS'conn'
p103
S'<gluon.rocket.Connection object>'
p104
ssg73
I1830
sg74
(dp105
I1825
S'        else:'
p106
sI1826
S'            sock_file = conn.makefile(BUF_SIZE)'
p107
sI1827
S''
sI1828
S'        try:'
p108
sI1829
S'            # Read the headers and build our WSGI environment'
p109
sI1830
S'            self.environ = environ = self.build_environ(sock_file, conn)'
p110
sI1831
S''
sI1832
S'            # Handle 100 Continue'
p111
sI1833
S"            if environ.get('HTTP_EXPECT', '') == '100-continue':"
p112
sI1834
S"                res = environ['SERVER_PROTOCOL'] + ' 100 Continue\\r\\n\\r\\n'"
p113
ssg86
S'(self=<WSGIWorker(Thread-7, started daemon -1281369280)>, conn=<gluon.rocket.Connection object>)'
p114
sg88
S'run_app'
p115
sa(dp116
g63
S'/home/daniel/web2py/gluon/rocket.py'
p117
sg65
(dp118
S'sock_file'
p119
S'<socket._fileobject object>'
p120
sS'self.read_request_line'
p121
S'<bound method WSGIWorker.read_request_line of <WSGIWorker(Thread-7, started daemon -1281369280)>>'
p122
sS'self'
p123
S'<WSGIWorker(Thread-7, started daemon -1281369280)>'
p124
sS'request'
p125
g100
ssg73
I1650
sg74
(dp126
I1645
S'                                      "wsgiorg.futures": executor.futures})'
p127
sI1646
S''
sI1647
S'    def build_environ(self, sock_file, conn):'
p128
sI1648
S'        """ Build the execution environment. """'
p129
sI1649
S'        # Grab the request line'
p130
sI1650
S'        request = self.read_request_line(sock_file)'
p131
sI1651
S''
sI1652
S'        # Copy the Base Environment'
p132
sI1653
S'        environ = self.base_environ.copy()'
p133
sI1654
S''
ssg86
S'(self=<WSGIWorker(Thread-7, started daemon -1281369280)>, sock_file=<socket._fileobject object>, conn=<gluon.rocket.Connection object>)'
p134
sg88
S'build_environ'
p135
sa(dp136
g63
S'/home/daniel/web2py/gluon/rocket.py'
p137
sg65
(dp138
S'global SocketTimeout'
p139
S"<class 'gluon.rocket.SocketTimeout'>"
p140
ssg73
I1401
sg74
(dp141
I1396
S''
sI1397
S'                d = sock_file.readline()'
p142
sI1398
S'                if PY3K:'
p143
sI1399
S"                    d = d.decode('ISO-8859-1')"
p144
sI1400
S'        except socket.timeout:'
p145
sI1401
S"            raise SocketTimeout('Socket timed out before request.')"
p146
sI1402
S'        except TypeError:'
p147
sI1403
S'            raise SocketClosed('
p148
sI1404
S"                'SSL bug caused closure of socket.  See '"
p149
sI1405
S'                \'"https://groups.google.com/d/topic/web2py/P_Gw0JxWzCs".\')'
p150
ssg86
S'(self=<WSGIWorker(Thread-7, started daemon -1281369280)>, sock_file=<socket._fileobject object>)'
p151
sg88
S'read_request_line'
p152
sasS'pyver'
p153
S'Python 2.7.3: /usr/bin/python (prefix: /usr)'
p154
sS'etype'
p155
S"<class 'gluon.rocket.SocketTimeout'>"
p156
sS'date'
p157
S'Wed Oct 26 19:53:11 2016'
p158
sS'locals'
p159
(dp160
S'sock_file'
p161
S'<socket._fileobject object>'
p162
sS'self'
p163
S'<WSGIWorker(Thread-7, started daemon -1281369280)>'
p164
sssS'traceback'
p165
S'Traceback (most recent call last):\n  File "/home/daniel/web2py/gluon/rocket.py", line 1337, in run\n    self.run_app(conn)\n  File "/home/daniel/web2py/gluon/rocket.py", line 1830, in run_app\n    self.environ = environ = self.build_environ(sock_file, conn)\n  File "/home/daniel/web2py/gluon/rocket.py", line 1650, in build_environ\n    request = self.read_request_line(sock_file)\n  File "/home/daniel/web2py/gluon/rocket.py", line 1401, in read_request_line\n    raise SocketTimeout(\'Socket timed out before request.\')\nSocketTimeout: Socket timed out before request.\n'
p166
s.